target datalayout = "e-m:e-p270:32:32-p271:32:32-p272:64:64-i64:64-i128:128-f80:128-n8:16:32:64-S128"
target triple = "x86_64-pc-linux-gnu"

%struct.BackendGlobalData = type <{ ptr, ptr, i8, i8, i8, i8, i8, i8, i8, i8, i8, [3 x i8], i32, ptr, ptr, ptr, ptr, ptr, ptr, ptr, ptr, ptr, ptr, ptr, ptr, ptr, i32, %struct.jvmtiCapabilities, i8, [3 x i8], %struct.jvmtiEventCallbacks, ptr, ptr, ptr, ptr, ptr, ptr, ptr, i32, [4 x i8], ptr, i64, i32, [4 x i8], ptr, i32, i32, i8, i8, [6 x i8] }>
%struct.jvmtiCapabilities = type { i64, i64 }
%struct.jvmtiEventCallbacks = type { ptr, ptr, ptr, ptr, ptr, ptr, ptr, ptr, ptr, ptr, ptr, ptr, ptr, ptr, ptr, ptr, ptr, ptr, ptr, ptr, ptr, ptr, ptr, ptr, ptr, ptr, ptr, ptr, ptr, ptr, ptr, ptr, ptr, ptr, ptr, ptr, ptr, ptr, ptr }
%struct.JNINativeInterface_ = type { ptr, ptr, ptr, ptr, ptr, ptr, ptr, ptr, ptr, ptr, ptr, ptr, ptr, ptr, ptr, ptr, ptr, ptr, ptr, ptr, ptr, ptr, ptr, ptr, ptr, ptr, ptr, ptr, ptr, ptr, ptr, ptr, ptr, ptr, ptr, ptr, ptr, ptr, ptr, ptr, ptr, ptr, ptr, ptr, ptr, ptr, ptr, ptr, ptr, ptr, ptr, ptr, ptr, ptr, ptr, ptr, ptr, ptr, ptr, ptr, ptr, ptr, ptr, ptr, ptr, ptr, ptr, ptr, ptr, ptr, ptr, ptr, ptr, ptr, ptr, ptr, ptr, ptr, ptr, ptr, ptr, ptr, ptr, ptr, ptr, ptr, ptr, ptr, ptr, ptr, ptr, ptr, ptr, ptr, ptr, ptr, ptr, ptr, ptr, ptr, ptr, ptr, ptr, ptr, ptr, ptr, ptr, ptr, ptr, ptr, ptr, ptr, ptr, ptr, ptr, ptr, ptr, ptr, ptr, ptr, ptr, ptr, ptr, ptr, ptr, ptr, ptr, ptr, ptr, ptr, ptr, ptr, ptr, ptr, ptr, ptr, ptr, ptr, ptr, ptr, ptr, ptr, ptr, ptr, ptr, ptr, ptr, ptr, ptr, ptr, ptr, ptr, ptr, ptr, ptr, ptr, ptr, ptr, ptr, ptr, ptr, ptr, ptr, ptr, ptr, ptr, ptr, ptr, ptr, ptr, ptr, ptr, ptr, ptr, ptr, ptr, ptr, ptr, ptr, ptr, ptr, ptr, ptr, ptr, ptr, ptr, ptr, ptr, ptr, ptr, ptr, ptr, ptr, ptr, ptr, ptr, ptr, ptr, ptr, ptr, ptr, ptr, ptr, ptr, ptr, ptr, ptr, ptr, ptr, ptr, ptr, ptr, ptr, ptr, ptr, ptr, ptr, ptr, ptr, ptr, ptr, ptr, ptr, ptr, ptr, ptr, ptr, ptr, ptr, ptr, ptr, ptr, ptr, ptr, ptr }

@gdata = hidden global ptr null, align 8
@.str.4 = private unnamed_addr constant [47 x i8] c"src/jdk.jdwp.agent/share/native/libjdwp/util.c\00", align 1
@.str.8 = private unnamed_addr constant [4 x i8] c"JNI\00", align 1
@.str.9 = private unnamed_addr constant [5 x i8] c"%s()\00", align 1
@.str.21 = private unnamed_addr constant [18 x i8] c"ExceptionOccurred\00", align 1
@.str.56 = private unnamed_addr constant [15 x i8] c"ExceptionClear\00", align 1
@.str.74 = private unnamed_addr constant [13 x i8] c"NewStringUTF\00", align 1
@.str.114 = private unnamed_addr constant [17 x i8] c"CallObjectMethod\00", align 1

; Function Attrs: nounwind uwtable
define hidden void @setAgentPropertyValue(ptr noundef %0, ptr noundef %1, ptr noundef %2) #0 {
  %4 = alloca ptr, align 8
  %5 = alloca ptr, align 8
  %6 = alloca ptr, align 8
  %7 = alloca ptr, align 8
  %8 = alloca ptr, align 8
  %9 = alloca i32, align 4
  %10 = alloca ptr, align 8
  %11 = alloca i32, align 4
  store ptr %0, ptr %4, align 8
  store ptr %1, ptr %5, align 8
  store ptr %2, ptr %6, align 8
  %12 = load ptr, ptr @gdata, align 8
  %13 = getelementptr inbounds %struct.BackendGlobalData, ptr %12, i32 0, i32 25
  %14 = load ptr, ptr %13, align 8
  %15 = icmp eq ptr %14, null
  br i1 %15, label %16, label %17

16:                                               ; preds = %3
  br label %125

17:                                               ; preds = %3
  %18 = load ptr, ptr @gdata, align 8
  %19 = getelementptr inbounds %struct.BackendGlobalData, ptr %18, i32 0, i32 38
  %20 = load i32, ptr %19, align 8
  %21 = and i32 %20, 2
  %22 = icmp ne i32 %21, 0
  br i1 %22, label %23, label %24

23:                                               ; preds = %17
  call void @log_message_begin(ptr noundef @.str.8, ptr noundef @.str.4, i32 noundef 1626)
  call void (ptr, ...) @log_message_end(ptr noundef @.str.9, ptr noundef @.str.74)
  br label %25

24:                                               ; preds = %17
  br label %25

25:                                               ; preds = %24, %23
  %26 = load ptr, ptr %4, align 8
  %27 = load ptr, ptr %26, align 8
  %28 = getelementptr inbounds %struct.JNINativeInterface_, ptr %27, i32 0, i32 167
  %29 = load ptr, ptr %28, align 8
  %30 = load ptr, ptr %4, align 8
  %31 = load ptr, ptr %5, align 8
  %32 = call ptr %29(ptr noundef %30, ptr noundef %31)
  store ptr %32, ptr %7, align 8
  %33 = load ptr, ptr %7, align 8
  %34 = icmp ne ptr %33, null
  br i1 %34, label %35, label %95

35:                                               ; preds = %25
  %36 = load ptr, ptr %6, align 8
  %37 = call i64 @strlen(ptr noundef %36) #7
  %38 = trunc i64 %37 to i32
  store i32 %38, ptr %9, align 4
  %39 = load i32, ptr %9, align 4
  %40 = mul nsw i32 %39, 4
  %41 = add nsw i32 %40, 1
  store i32 %41, ptr %11, align 4
  %42 = load i32, ptr %11, align 4
  %43 = call ptr @jvmtiAllocate(i32 noundef %42)
  store ptr %43, ptr %10, align 8
  %44 = load ptr, ptr %10, align 8
  %45 = icmp ne ptr %44, null
  br i1 %45, label %46, label %94

46:                                               ; preds = %35
  %47 = load ptr, ptr %6, align 8
  %48 = load i32, ptr %9, align 4
  %49 = load ptr, ptr %10, align 8
  %50 = load i32, ptr %11, align 4
  %51 = call i32 @utf8FromPlatform(ptr noundef %47, i32 noundef %48, ptr noundef %49, i32 noundef %50)
  %52 = load ptr, ptr @gdata, align 8
  %53 = getelementptr inbounds %struct.BackendGlobalData, ptr %52, i32 0, i32 38
  %54 = load i32, ptr %53, align 8
  %55 = and i32 %54, 2
  %56 = icmp ne i32 %55, 0
  br i1 %56, label %57, label %58

57:                                               ; preds = %46
  call void @log_message_begin(ptr noundef @.str.8, ptr noundef @.str.4, i32 noundef 1638)
  call void (ptr, ...) @log_message_end(ptr noundef @.str.9, ptr noundef @.str.74)
  br label %59

58:                                               ; preds = %46
  br label %59

59:                                               ; preds = %58, %57
  %60 = load ptr, ptr %4, align 8
  %61 = load ptr, ptr %60, align 8
  %62 = getelementptr inbounds %struct.JNINativeInterface_, ptr %61, i32 0, i32 167
  %63 = load ptr, ptr %62, align 8
  %64 = load ptr, ptr %4, align 8
  %65 = load ptr, ptr %10, align 8
  %66 = call ptr %63(ptr noundef %64, ptr noundef %65)
  store ptr %66, ptr %8, align 8
  %67 = load ptr, ptr %10, align 8
  call void @jvmtiDeallocate(ptr noundef %67)
  %68 = load ptr, ptr %8, align 8
  %69 = icmp ne ptr %68, null
  br i1 %69, label %70, label %93

70:                                               ; preds = %59
  %71 = load ptr, ptr @gdata, align 8
  %72 = getelementptr inbounds %struct.BackendGlobalData, ptr %71, i32 0, i32 38
  %73 = load i32, ptr %72, align 8
  %74 = and i32 %73, 2
  %75 = icmp ne i32 %74, 0
  br i1 %75, label %76, label %77

76:                                               ; preds = %70
  call void @log_message_begin(ptr noundef @.str.8, ptr noundef @.str.4, i32 noundef 1643)
  call void (ptr, ...) @log_message_end(ptr noundef @.str.9, ptr noundef @.str.114)
  br label %78

77:                                               ; preds = %70
  br label %78

78:                                               ; preds = %77, %76
  %79 = load ptr, ptr %4, align 8
  %80 = load ptr, ptr %79, align 8
  %81 = getelementptr inbounds %struct.JNINativeInterface_, ptr %80, i32 0, i32 34
  %82 = load ptr, ptr %81, align 8
  %83 = load ptr, ptr %4, align 8
  %84 = load ptr, ptr @gdata, align 8
  %85 = getelementptr inbounds %struct.BackendGlobalData, ptr %84, i32 0, i32 25
  %86 = load ptr, ptr %85, align 8
  %87 = load ptr, ptr @gdata, align 8
  %88 = getelementptr inbounds %struct.BackendGlobalData, ptr %87, i32 0, i32 23
  %89 = load ptr, ptr %88, align 8
  %90 = load ptr, ptr %7, align 8
  %91 = load ptr, ptr %8, align 8
  %92 = call ptr (ptr, ptr, ptr, ...) %82(ptr noundef %83, ptr noundef %86, ptr noundef %89, ptr noundef %90, ptr noundef %91)
  br label %93

93:                                               ; preds = %78, %59
  br label %94

94:                                               ; preds = %93, %35
  br label %95

95:                                               ; preds = %94, %25
  %96 = load ptr, ptr @gdata, align 8
  %97 = getelementptr inbounds %struct.BackendGlobalData, ptr %96, i32 0, i32 38
  %98 = load i32, ptr %97, align 8
  %99 = and i32 %98, 2
  %100 = icmp ne i32 %99, 0
  br i1 %100, label %101, label %102

101:                                              ; preds = %95
  call void @log_message_begin(ptr noundef @.str.8, ptr noundef @.str.4, i32 noundef 1650)
  call void (ptr, ...) @log_message_end(ptr noundef @.str.9, ptr noundef @.str.21)
  br label %103

102:                                              ; preds = %95
  br label %103

103:                                              ; preds = %102, %101
  %104 = load ptr, ptr %4, align 8
  %105 = load ptr, ptr %104, align 8
  %106 = getelementptr inbounds %struct.JNINativeInterface_, ptr %105, i32 0, i32 15
  %107 = load ptr, ptr %106, align 8
  %108 = load ptr, ptr %4, align 8
  %109 = call ptr %107(ptr noundef %108)
  %110 = icmp ne ptr %109, null
  br i1 %110, label %111, label %125

111:                                              ; preds = %103
  %112 = load ptr, ptr @gdata, align 8
  %113 = getelementptr inbounds %struct.BackendGlobalData, ptr %112, i32 0, i32 38
  %114 = load i32, ptr %113, align 8
  %115 = and i32 %114, 2
  %116 = icmp ne i32 %115, 0
  br i1 %116, label %117, label %118

117:                                              ; preds = %111
  call void @log_message_begin(ptr noundef @.str.8, ptr noundef @.str.4, i32 noundef 1651)
  call void (ptr, ...) @log_message_end(ptr noundef @.str.9, ptr noundef @.str.56)
  br label %119

118:                                              ; preds = %111
  br label %119

119:                                              ; preds = %118, %117
  %120 = load ptr, ptr %4, align 8
  %121 = load ptr, ptr %120, align 8
  %122 = getelementptr inbounds %struct.JNINativeInterface_, ptr %121, i32 0, i32 17
  %123 = load ptr, ptr %122, align 8
  %124 = load ptr, ptr %4, align 8
  call void %123(ptr noundef %124)
  br label %125

125:                                              ; preds = %119, %103, %16
  ret void
}