; Function Attrs: nounwind uwtable
define hidden void @setAgentPropertyValue(ptr noundef %0, ptr noundef %1, ptr noundef %2) local_unnamed_addr #0 {
  %4 = load ptr, ptr @gdata, align 8
  %5 = getelementptr inbounds i8, ptr %4, i64 128
  %6 = load ptr, ptr %5, align 8
  %7 = icmp eq ptr %6, null
  br i1 %7, label %73, label %8

8:                                                ; preds = %3
  %9 = getelementptr inbounds i8, ptr %4, i64 528
  %10 = load i32, ptr %9, align 8
  %11 = and i32 %10, 2
  %.not = icmp eq i32 %11, 0
  br i1 %.not, label %13, label %12

12:                                               ; preds = %8
  tail call void @log_message_begin(ptr noundef nonnull @.str.8, ptr noundef nonnull @.str.4, i32 noundef 1626) #14
  tail call void (ptr, ...) @log_message_end(ptr noundef nonnull @.str.9, ptr noundef nonnull @.str.74) #14
  br label %13

13:                                               ; preds = %8, %12
  %14 = load ptr, ptr %0, align 8
  %15 = getelementptr inbounds i8, ptr %14, i64 1336
  %16 = load ptr, ptr %15, align 8
  %17 = tail call ptr %16(ptr noundef nonnull %0, ptr noundef %1) #14
  %.not26 = icmp eq ptr %17, null
  br i1 %.not26, label %52, label %18

18:                                               ; preds = %13
  %19 = tail call i64 @strlen(ptr noundef nonnull dereferenceable(1) %2) #15
  %20 = trunc i64 %19 to i32
  %21 = shl nsw i32 %20, 2
  %22 = or disjoint i32 %21, 1
  %23 = tail call ptr @jvmtiAllocate(i32 noundef %22)
  %.not27 = icmp eq ptr %23, null
  br i1 %.not27, label %52, label %24

24:                                               ; preds = %18
  %25 = tail call i32 @utf8FromPlatform(ptr noundef %2, i32 noundef %20, ptr noundef nonnull %23, i32 noundef %22) #14
  %26 = load ptr, ptr @gdata, align 8
  %27 = getelementptr inbounds i8, ptr %26, i64 528
  %28 = load i32, ptr %27, align 8
  %29 = and i32 %28, 2
  %.not28 = icmp eq i32 %29, 0
  br i1 %.not28, label %31, label %30

30:                                               ; preds = %24
  tail call void @log_message_begin(ptr noundef nonnull @.str.8, ptr noundef nonnull @.str.4, i32 noundef 1638) #14
  tail call void (ptr, ...) @log_message_end(ptr noundef nonnull @.str.9, ptr noundef nonnull @.str.74) #14
  br label %31

31:                                               ; preds = %24, %30
  %32 = load ptr, ptr %0, align 8
  %33 = getelementptr inbounds i8, ptr %32, i64 1336
  %34 = load ptr, ptr %33, align 8
  %35 = tail call ptr %34(ptr noundef nonnull %0, ptr noundef nonnull %23) #14
  tail call void @jvmtiDeallocate(ptr noundef nonnull %23)
  %.not29 = icmp eq ptr %35, null
  br i1 %.not29, label %52, label %36

36:                                               ; preds = %31
  %37 = load ptr, ptr @gdata, align 8
  %38 = getelementptr inbounds i8, ptr %37, i64 528
  %39 = load i32, ptr %38, align 8
  %40 = and i32 %39, 2
  %.not30 = icmp eq i32 %40, 0
  br i1 %.not30, label %42, label %41

41:                                               ; preds = %36
  tail call void @log_message_begin(ptr noundef nonnull @.str.8, ptr noundef nonnull @.str.4, i32 noundef 1643) #14
  tail call void (ptr, ...) @log_message_end(ptr noundef nonnull @.str.9, ptr noundef nonnull @.str.114) #14
  %.pre = load ptr, ptr @gdata, align 8
  br label %42

42:                                               ; preds = %36, %41
  %43 = phi ptr [ %37, %36 ], [ %.pre, %41 ]
  %44 = load ptr, ptr %0, align 8
  %45 = getelementptr inbounds i8, ptr %44, i64 272
  %46 = load ptr, ptr %45, align 8
  %47 = getelementptr inbounds i8, ptr %43, i64 128
  %48 = load ptr, ptr %47, align 8
  %49 = getelementptr inbounds i8, ptr %43, i64 112
  %50 = load ptr, ptr %49, align 8
  %51 = tail call ptr (ptr, ptr, ptr, ...) %46(ptr noundef nonnull %0, ptr noundef %48, ptr noundef %50, ptr noundef nonnull %17, ptr noundef nonnull %35) #14
  br label %52

52:                                               ; preds = %18, %42, %31, %13
  %53 = load ptr, ptr @gdata, align 8
  %54 = getelementptr inbounds i8, ptr %53, i64 528
  %55 = load i32, ptr %54, align 8
  %56 = and i32 %55, 2
  %.not31 = icmp eq i32 %56, 0
  br i1 %.not31, label %58, label %57

57:                                               ; preds = %52
  tail call void @log_message_begin(ptr noundef nonnull @.str.8, ptr noundef nonnull @.str.4, i32 noundef 1650) #14
  tail call void (ptr, ...) @log_message_end(ptr noundef nonnull @.str.9, ptr noundef nonnull @.str.21) #14
  br label %58

58:                                               ; preds = %52, %57
  %59 = load ptr, ptr %0, align 8
  %60 = getelementptr inbounds i8, ptr %59, i64 120
  %61 = load ptr, ptr %60, align 8
  %62 = tail call ptr %61(ptr noundef nonnull %0) #14
  %.not32 = icmp eq ptr %62, null
  br i1 %.not32, label %73, label %63

63:                                               ; preds = %58
  %64 = load ptr, ptr @gdata, align 8
  %65 = getelementptr inbounds i8, ptr %64, i64 528
  %66 = load i32, ptr %65, align 8
  %67 = and i32 %66, 2
  %.not33 = icmp eq i32 %67, 0
  br i1 %.not33, label %69, label %68

68:                                               ; preds = %63
  tail call void @log_message_begin(ptr noundef nonnull @.str.8, ptr noundef nonnull @.str.4, i32 noundef 1651) #14
  tail call void (ptr, ...) @log_message_end(ptr noundef nonnull @.str.9, ptr noundef nonnull @.str.56) #14
  br label %69

69:                                               ; preds = %63, %68
  %70 = load ptr, ptr %0, align 8
  %71 = getelementptr inbounds i8, ptr %70, i64 136
  %72 = load ptr, ptr %71, align 8
  tail call void %72(ptr noundef nonnull %0) #14
  br label %73

73:                                               ; preds = %3, %69, %58
  ret void
}